target datalayout = "e-m:e-p270:32:32-p271:32:32-p272:64:64-i64:64-i128:128-f80:128-n8:16:32:64-S128"
target triple = "x86_64-pc-linux-gnu"

%"class.nanogui::Color" = type { %"struct.nanogui::Array" }
%"struct.nanogui::Array" = type { [4 x float] }
%"class.std::__1::basic_string" = type { %"class.std::__1::__compressed_pair.4" }
%"class.std::__1::__compressed_pair.4" = type { %"struct.std::__1::__compressed_pair_elem.5" }
%"struct.std::__1::__compressed_pair_elem.5" = type { %"struct.std::__1::basic_string<char>::__rep" }
%"struct.std::__1::basic_string<char>::__rep" = type { %union.anon }
%union.anon = type { %"struct.std::__1::basic_string<char>::__long" }
%"struct.std::__1::basic_string<char>::__long" = type { %struct.anon.6, i64, ptr }
%struct.anon.6 = type { i64 }
%"struct.std::__1::atomic" = type { %"struct.std::__1::__atomic_base" }
%"struct.std::__1::__atomic_base" = type { %"struct.std::__1::__atomic_base.0" }
%"struct.std::__1::__atomic_base.0" = type { %"struct.std::__1::__cxx_atomic_impl" }
%"struct.std::__1::__cxx_atomic_impl" = type { %"struct.std::__1::__cxx_atomic_base_impl" }
%"struct.std::__1::__cxx_atomic_base_impl" = type { i32 }
%"struct.nanogui::Array.2" = type { [2 x i32] }
%"struct.std::__1::aligned_storage<24>::type" = type { [32 x i8] }
%class.anon.110 = type { ptr }
%"class.std::__1::function" = type { %"class.std::__1::__function::__value_func" }
%"class.std::__1::__function::__value_func" = type { %"struct.std::__1::aligned_storage<24>::type", ptr, [8 x i8] }
%"class.std::__1::shared_ptr.24" = type { ptr, ptr }
%"class.tev::ImageViewer" = type <{ %"class.nanogui::Screen", %"class.tev::SharedQueue", i8, i8, [6 x i8], ptr, ptr, ptr, ptr, ptr, i8, [7 x i8], ptr, ptr, ptr, ptr, ptr, ptr, ptr, ptr, %"class.std::__1::shared_ptr", %"class.std::__1::shared_ptr.24", %"class.std::__1::shared_ptr.24", %"class.std::__1::vector.25", ptr, %"class.std::__1::set", ptr, ptr, ptr, %"class.std::__1::chrono::time_point", %"class.std::__1::vector.40", %"class.std::__1::vector.40", ptr, ptr, %"class.std::__1::chrono::time_point", ptr, ptr, ptr, ptr, ptr, %"class.std::__1::basic_string", ptr, %"struct.nanogui::Array.2", i32, [4 x i8], i64, i64, i8, [7 x i8], ptr, i32, [4 x i8] }>
%"class.nanogui::Screen" = type { %"class.nanogui::Widget.base", ptr, ptr, [6 x ptr], i32, %"class.std::__1::vector", %"struct.nanogui::Array.2", float, i32, i32, %"struct.nanogui::Array.2", i8, ptr, double, i8, %"class.nanogui::Color", %"class.std::__1::basic_string", i8, i8, i8, i8, i8, i8, %"class.std::__1::function" }
%"class.nanogui::Widget.base" = type <{ %"class.nanogui::Object.base", [4 x i8], ptr, %"class.nanogui::ref", %"class.nanogui::ref.1", %"struct.nanogui::Array.2", %"struct.nanogui::Array.2", %"struct.nanogui::Array.2", %"class.std::__1::vector", i8, i8, i8, i8, [4 x i8], %"class.std::__1::basic_string", i32, float, i32 }>
%"class.nanogui::Object.base" = type <{ ptr, %"struct.std::__1::atomic" }>
%"class.nanogui::ref" = type { ptr }
%"class.nanogui::ref.1" = type { ptr }
%"class.std::__1::vector" = type { ptr, ptr, %"class.std::__1::__compressed_pair" }
%"class.std::__1::__compressed_pair" = type { %"struct.std::__1::__compressed_pair_elem" }
%"struct.std::__1::__compressed_pair_elem" = type { ptr }
%"class.tev::SharedQueue" = type { %"class.std::__1::deque", %"class.std::__1::mutex", %"class.std::__1::condition_variable" }
%"class.std::__1::deque" = type { %"struct.std::__1::__split_buffer", i64, %"class.std::__1::__compressed_pair.17" }
%"struct.std::__1::__split_buffer" = type { ptr, ptr, ptr, %"class.std::__1::__compressed_pair.11" }
%"class.std::__1::__compressed_pair.11" = type { %"struct.std::__1::__compressed_pair_elem.12" }
%"struct.std::__1::__compressed_pair_elem.12" = type { ptr }
%"class.std::__1::__compressed_pair.17" = type { %"struct.std::__1::__compressed_pair_elem.18" }
%"struct.std::__1::__compressed_pair_elem.18" = type { i64 }
%"class.std::__1::mutex" = type { %union.pthread_mutex_t }
%union.pthread_mutex_t = type { %struct.__pthread_mutex_s }
%struct.__pthread_mutex_s = type { i32, i32, i32, i32, i32, i16, i16, %struct.__pthread_internal_list }
%struct.__pthread_internal_list = type { ptr, ptr }
%"class.std::__1::condition_variable" = type { %union.pthread_cond_t }
%union.pthread_cond_t = type { %struct.__pthread_cond_s }
%struct.__pthread_cond_s = type { %union.__atomic_wide_counter, %union.__atomic_wide_counter, [2 x i32], [2 x i32], i32, i32, [2 x i32] }
%union.__atomic_wide_counter = type { i64 }
%"class.std::__1::shared_ptr" = type { ptr, ptr }
%"class.std::__1::vector.25" = type { ptr, ptr, %"class.std::__1::__compressed_pair.26" }
%"class.std::__1::__compressed_pair.26" = type { %"struct.std::__1::__compressed_pair_elem.27" }
%"struct.std::__1::__compressed_pair_elem.27" = type { ptr }
%"class.std::__1::set" = type { %"class.std::__1::__tree" }
%"class.std::__1::__tree" = type { ptr, %"class.std::__1::__compressed_pair.32", %"class.std::__1::__compressed_pair.38" }
%"class.std::__1::__compressed_pair.32" = type { %"struct.std::__1::__compressed_pair_elem.33" }
%"struct.std::__1::__compressed_pair_elem.33" = type { %"class.std::__1::__tree_end_node" }
%"class.std::__1::__tree_end_node" = type { ptr }
%"class.std::__1::__compressed_pair.38" = type { %"struct.std::__1::__compressed_pair_elem.18" }
%"class.std::__1::vector.40" = type { ptr, ptr, %"class.std::__1::__compressed_pair.41" }
%"class.std::__1::__compressed_pair.41" = type { %"struct.std::__1::__compressed_pair_elem.42" }
%"struct.std::__1::__compressed_pair_elem.42" = type { ptr }
%"class.std::__1::chrono::time_point" = type { %"class.std::__1::chrono::duration" }
%"class.std::__1::chrono::duration" = type { i64 }
%"class.tev::ImageCanvas" = type { %"class.nanogui::Canvas.base", float, float, float, float, i8, %"class.std::__1::shared_ptr.24", %"class.std::__1::shared_ptr.24", %"class.std::__1::basic_string", %"struct.nanogui::Matrix", %"class.std::__1::unique_ptr.62", i32, i32, %"class.std::__1::optional", %"class.std::__1::map", %"class.std::__1::map.79" }
%"class.nanogui::Canvas.base" = type <{ %"class.nanogui::Widget.base", [4 x i8], %"class.nanogui::ref.61", i8, [3 x i8], %"class.nanogui::Color", i8 }>
%"class.nanogui::ref.61" = type { ptr }
%"struct.nanogui::Matrix" = type { [3 x [3 x float]] }
%"class.std::__1::unique_ptr.62" = type { %"class.std::__1::__compressed_pair.63" }
%"class.std::__1::__compressed_pair.63" = type { %"struct.std::__1::__compressed_pair_elem.64" }
%"struct.std::__1::__compressed_pair_elem.64" = type { ptr }
%"class.std::__1::optional" = type { %"struct.std::__1::__optional_move_assign_base.base", [3 x i8] }
%"struct.std::__1::__optional_move_assign_base.base" = type { %"struct.std::__1::__optional_copy_assign_base.base" }
%"struct.std::__1::__optional_copy_assign_base.base" = type { %"struct.std::__1::__optional_move_base.base" }
%"struct.std::__1::__optional_move_base.base" = type { %"struct.std::__1::__optional_copy_base.base" }
%"struct.std::__1::__optional_copy_base.base" = type { %"struct.std::__1::__optional_storage_base.base" }
%"struct.std::__1::__optional_storage_base.base" = type { %"struct.std::__1::__optional_destruct_base.base" }
%"struct.std::__1::__optional_destruct_base.base" = type <{ %union.anon.68, i8 }>
%union.anon.68 = type { %"struct.tev::Box" }
%"struct.tev::Box" = type { %"struct.nanogui::Array.2", %"struct.nanogui::Array.2" }
%"class.std::__1::map" = type { %"class.std::__1::__tree.69" }
%"class.std::__1::__tree.69" = type { ptr, %"class.std::__1::__compressed_pair.70", %"class.std::__1::__compressed_pair.75" }
%"class.std::__1::__compressed_pair.70" = type { %"struct.std::__1::__compressed_pair_elem.33" }
%"class.std::__1::__compressed_pair.75" = type { %"struct.std::__1::__compressed_pair_elem.18" }
%"class.std::__1::map.79" = type { %"class.std::__1::__tree.80" }
%"class.std::__1::__tree.80" = type { ptr, %"class.std::__1::__compressed_pair.81", %"class.std::__1::__compressed_pair.86" }
%"class.std::__1::__compressed_pair.81" = type { %"struct.std::__1::__compressed_pair_elem.33" }
%"class.std::__1::__compressed_pair.86" = type { %"struct.std::__1::__compressed_pair_elem.18" }
%"class.std::__1::__function::__base" = type { ptr }
%"class.std::__1::__function::__func.696" = type { %"class.std::__1::__function::__base", %"class.std::__1::__function::__alloc_func.697" }
%"class.std::__1::__function::__alloc_func.697" = type { %"class.std::__1::__compressed_pair.698" }
%"class.std::__1::__compressed_pair.698" = type { %"struct.std::__1::__compressed_pair_elem.699" }
%"struct.std::__1::__compressed_pair_elem.699" = type { %class.anon.110 }

; Function Attrs: mustprogress nounwind uwtable
define linkonce_odr dso_local void @_ZN3tev11ImageCanvas12setClipToLdrEb(ptr noundef nonnull align 8 dereferenceable(376) %0, i1 noundef zeroext %1) #1 comdat align 2 {
  %3 = alloca ptr, align 8
  %4 = alloca i8, align 1
  store ptr %0, ptr %3, align 8
  %5 = zext i1 %1 to i8
  store i8 %5, ptr %4, align 1
  %6 = load ptr, ptr %3, align 8
  %7 = load i8, ptr %4, align 1
  %8 = trunc i8 %7 to i1
  %9 = getelementptr inbounds %"class.tev::ImageCanvas", ptr %6, i32 0, i32 5
  %10 = zext i1 %8 to i8
  store i8 %10, ptr %9, align 8
  ret void
}

; Function Attrs: mustprogress nounwind uwtable
define internal void @"_ZZN3tev11ImageViewerC1ERKNSt3__110shared_ptrINS_22BackgroundImagesLoaderEEEbbbENK3$_7clEb"(ptr noundef nonnull align 8 dereferenceable(8) %0, i1 noundef zeroext %1) #1 align 2 {
  %3 = alloca ptr, align 8
  %4 = alloca i8, align 1
  store ptr %0, ptr %3, align 8
  %5 = zext i1 %1 to i8
  store i8 %5, ptr %4, align 1
  %6 = load ptr, ptr %3, align 8
  %7 = getelementptr inbounds %class.anon.110, ptr %6, i32 0, i32 0
  %8 = load ptr, ptr %7, align 8
  %9 = getelementptr inbounds %"class.tev::ImageViewer", ptr %8, i32 0, i32 38
  %10 = load ptr, ptr %9, align 8
  %11 = load i8, ptr %4, align 1
  %12 = trunc i8 %11 to i1
  call void @_ZN3tev11ImageCanvas12setClipToLdrEb(ptr noundef nonnull align 8 dereferenceable(376) %10, i1 noundef zeroext %12)
  ret void
}

; Function Attrs: mustprogress uwtable
define internal void @"_ZNSt3__18__invokeB8ne190000IRZN3tev11ImageViewerC1ERKNS_10shared_ptrINS1_22BackgroundImagesLoaderEEEbbbE3$_7JbEEEDTclclsr3stdE7declvalIT_EEspclsr3stdE7declvalIT0_EEEEOSA_DpOSB_"(ptr noundef nonnull align 8 dereferenceable(8) %0, ptr noundef nonnull align 1 dereferenceable(1) %1) #4 {
  %3 = alloca ptr, align 8
  %4 = alloca ptr, align 8
  store ptr %0, ptr %3, align 8
  store ptr %1, ptr %4, align 8
  %5 = load ptr, ptr %3, align 8
  %6 = load ptr, ptr %4, align 8
  %7 = load i8, ptr %6, align 1
  %8 = trunc i8 %7 to i1
  call void @"_ZZN3tev11ImageViewerC1ERKNSt3__110shared_ptrINS_22BackgroundImagesLoaderEEEbbbENK3$_7clEb"(ptr noundef nonnull align 8 dereferenceable(8) %5, i1 noundef zeroext %8)
  ret void
}

; Function Attrs: mustprogress nounwind uwtable
define internal noundef nonnull align 8 dereferenceable(8) ptr @"_ZNSt3__122__compressed_pair_elemIZN3tev11ImageViewerC1ERKNS_10shared_ptrINS1_22BackgroundImagesLoaderEEEbbbE3$_7Li0ELb0EE5__getB8ne190000Ev"(ptr noundef nonnull align 8 dereferenceable(8) %0) #1 align 2 {
  %2 = alloca ptr, align 8
  store ptr %0, ptr %2, align 8
  %3 = load ptr, ptr %2, align 8
  %4 = getelementptr inbounds %"struct.std::__1::__compressed_pair_elem.699", ptr %3, i32 0, i32 0
  ret ptr %4
}

; Function Attrs: mustprogress uwtable
define internal void @"_ZNSt3__128__invoke_void_return_wrapperIvLb1EE6__callB8ne190000IJRZN3tev11ImageViewerC1ERKNS_10shared_ptrINS3_22BackgroundImagesLoaderEEEbbbE3$_7bEEEvDpOT_"(ptr noundef nonnull align 8 dereferenceable(8) %0, ptr noundef nonnull align 1 dereferenceable(1) %1) #4 align 2 {
  %3 = alloca ptr, align 8
  %4 = alloca ptr, align 8
  store ptr %0, ptr %3, align 8
  store ptr %1, ptr %4, align 8
  %5 = load ptr, ptr %3, align 8
  %6 = load ptr, ptr %4, align 8
  call void @"_ZNSt3__18__invokeB8ne190000IRZN3tev11ImageViewerC1ERKNS_10shared_ptrINS1_22BackgroundImagesLoaderEEEbbbE3$_7JbEEEDTclclsr3stdE7declvalIT_EEspclsr3stdE7declvalIT0_EEEEOSA_DpOSB_"(ptr noundef nonnull align 8 dereferenceable(8) %5, ptr noundef nonnull align 1 dereferenceable(1) %6)
  ret void
}

; Function Attrs: mustprogress nounwind uwtable
define internal noundef nonnull align 8 dereferenceable(8) ptr @"_ZNSt3__117__compressed_pairIZN3tev11ImageViewerC1ERKNS_10shared_ptrINS1_22BackgroundImagesLoaderEEEbbbE3$_7NS_9allocatorIS8_EEE5firstB8ne190000Ev"(ptr noundef nonnull align 8 dereferenceable(8) %0) #1 align 2 {
  %2 = alloca ptr, align 8
  store ptr %0, ptr %2, align 8
  %3 = load ptr, ptr %2, align 8
  %4 = call noundef nonnull align 8 dereferenceable(8) ptr @"_ZNSt3__122__compressed_pair_elemIZN3tev11ImageViewerC1ERKNS_10shared_ptrINS1_22BackgroundImagesLoaderEEEbbbE3$_7Li0ELb0EE5__getB8ne190000Ev"(ptr noundef nonnull align 8 dereferenceable(8) %3) #11
  ret ptr %4
}

; Function Attrs: mustprogress uwtable
define internal void @"_ZNSt3__110__function12__alloc_funcIZN3tev11ImageViewerC1ERKNS_10shared_ptrINS2_22BackgroundImagesLoaderEEEbbbE3$_7NS_9allocatorIS9_EEFvbEEclB8ne190000EOb"(ptr noundef nonnull align 8 dereferenceable(8) %0, ptr noundef nonnull align 1 dereferenceable(1) %1) #4 align 2 {
  %3 = alloca ptr, align 8
  %4 = alloca ptr, align 8
  store ptr %0, ptr %3, align 8
  store ptr %1, ptr %4, align 8
  %5 = load ptr, ptr %3, align 8
  %6 = getelementptr inbounds %"class.std::__1::__function::__alloc_func.697", ptr %5, i32 0, i32 0
  %7 = call noundef nonnull align 8 dereferenceable(8) ptr @"_ZNSt3__117__compressed_pairIZN3tev11ImageViewerC1ERKNS_10shared_ptrINS1_22BackgroundImagesLoaderEEEbbbE3$_7NS_9allocatorIS8_EEE5firstB8ne190000Ev"(ptr noundef nonnull align 8 dereferenceable(8) %6) #11
  %8 = load ptr, ptr %4, align 8
  call void @"_ZNSt3__128__invoke_void_return_wrapperIvLb1EE6__callB8ne190000IJRZN3tev11ImageViewerC1ERKNS_10shared_ptrINS3_22BackgroundImagesLoaderEEEbbbE3$_7bEEEvDpOT_"(ptr noundef nonnull align 8 dereferenceable(8) %7, ptr noundef nonnull align 1 dereferenceable(1) %8)
  ret void
}

; Function Attrs: mustprogress uwtable
define internal void @"_ZNSt3__110__function6__funcIZN3tev11ImageViewerC1ERKNS_10shared_ptrINS2_22BackgroundImagesLoaderEEEbbbE3$_7NS_9allocatorIS9_EEFvbEEclEOb"(ptr noundef nonnull align 8 dereferenceable(16) %0, ptr noundef nonnull align 1 dereferenceable(1) %1) unnamed_addr #4 align 2 {
  %3 = alloca ptr, align 8
  %4 = alloca ptr, align 8
  store ptr %0, ptr %3, align 8
  store ptr %1, ptr %4, align 8
  %5 = load ptr, ptr %3, align 8
  %6 = getelementptr inbounds %"class.std::__1::__function::__func.696", ptr %5, i32 0, i32 1
  %7 = load ptr, ptr %4, align 8
  call void @"_ZNSt3__110__function12__alloc_funcIZN3tev11ImageViewerC1ERKNS_10shared_ptrINS2_22BackgroundImagesLoaderEEEbbbE3$_7NS_9allocatorIS9_EEFvbEEclB8ne190000EOb"(ptr noundef nonnull align 8 dereferenceable(8) %6, ptr noundef nonnull align 1 dereferenceable(1) %7)
  ret void
}